; ModuleID = 'source-C-CXX/57/206.cpp'
source_filename = "source-C-CXX/57/206.cpp"
target datalayout = "e-m:e-p270:32:32-p271:32:32-p272:64:64-i64:64-f80:128-n8:16:32:64-S128"
target triple = "x86_64-pc-linux-gnu"

%"class.std::ios_base::Init" = type { i8 }
%"class.std::basic_istream" = type { i32 (...)**, i64, %"class.std::basic_ios" }
%"class.std::basic_ios" = type { %"class.std::ios_base", %"class.std::basic_ostream"*, i8, i8, %"class.std::basic_streambuf"*, %"class.std::ctype"*, %"class.std::num_put"*, %"class.std::num_get"* }
%"class.std::ios_base" = type { i32 (...)**, i64, i64, i32, i32, i32, %"struct.std::ios_base::_Callback_list"*, %"struct.std::ios_base::_Words", [8 x %"struct.std::ios_base::_Words"], i32, %"struct.std::ios_base::_Words"*, %"class.std::locale" }
%"struct.std::ios_base::_Callback_list" = type { %"struct.std::ios_base::_Callback_list"*, void (i32, %"class.std::ios_base"*, i32)*, i32, i32 }
%"struct.std::ios_base::_Words" = type { i8*, i64 }
%"class.std::locale" = type { %"class.std::locale::_Impl"* }
%"class.std::locale::_Impl" = type { i32, %"class.std::locale::facet"**, i64, %"class.std::locale::facet"**, i8** }
%"class.std::locale::facet" = type <{ i32 (...)**, i32, [4 x i8] }>
%"class.std::basic_ostream" = type { i32 (...)**, %"class.std::basic_ios" }
%"class.std::basic_streambuf" = type { i32 (...)**, i8*, i8*, i8*, i8*, i8*, i8*, %"class.std::locale" }
%"class.std::ctype" = type <{ %"class.std::locale::facet.base", [4 x i8], %struct.__locale_struct*, i8, [7 x i8], i32*, i32*, i16*, i8, [256 x i8], [256 x i8], i8, [6 x i8] }>
%"class.std::locale::facet.base" = type <{ i32 (...)**, i32 }>
%struct.__locale_struct = type { [13 x %struct.__locale_data*], i16*, i32*, i32*, [13 x i8*] }
%struct.__locale_data = type opaque
%"class.std::num_put" = type { %"class.std::locale::facet.base", [4 x i8] }
%"class.std::num_get" = type { %"class.std::locale::facet.base", [4 x i8] }

@_ZStL8__ioinit = internal global %"class.std::ios_base::Init" zeroinitializer, align 1
@__dso_handle = external hidden global i8
@_ZSt3cin = external global %"class.std::basic_istream", align 8
@_ZSt4cout = external global %"class.std::basic_ostream", align 8
@llvm.global_ctors = appending global [1 x { i32, void ()*, i8* }] [{ i32, void ()*, i8* } { i32 65535, void ()* @_GLOBAL__sub_I_206.cpp, i8* null }]

declare void @_ZNSt8ios_base4InitC1Ev(%"class.std::ios_base::Init"* nonnull align 1 dereferenceable(1)) unnamed_addr #0

; Function Attrs: nounwind
declare void @_ZNSt8ios_base4InitD1Ev(%"class.std::ios_base::Init"* nonnull align 1 dereferenceable(1)) unnamed_addr #1

; Function Attrs: nofree nounwind
declare i32 @__cxa_atexit(void (i8*)*, i8*, i8*) local_unnamed_addr #2

; Function Attrs: mustprogress norecurse sspstrong uwtable
define dso_local i32 @main() local_unnamed_addr #3 {
  %1 = alloca i32, align 4
  %2 = alloca [100 x i8], align 16
  %3 = bitcast i32* %1 to i8*
  call void @llvm.lifetime.start.p0i8(i64 4, i8* nonnull %3) #8
  %4 = getelementptr inbounds [100 x i8], [100 x i8]* %2, i64 0, i64 0
  call void @llvm.lifetime.start.p0i8(i64 100, i8* nonnull %4) #8
  %5 = call nonnull align 8 dereferenceable(16) %"class.std::basic_istream"* @_ZNSirsERi(%"class.std::basic_istream"* nonnull align 8 dereferenceable(16) @_ZSt3cin, i32* nonnull align 4 dereferenceable(4) %1)
  %6 = call i32 @_ZNSi3getEv(%"class.std::basic_istream"* nonnull align 8 dereferenceable(16) @_ZSt3cin)
  %7 = load i32, i32* %1, align 4, !tbaa !5
  %8 = icmp sgt i32 %7, 0
  br i1 %8, label %9, label %107

9:                                                ; preds = %0, %100
  %10 = phi i32 [ %104, %100 ], [ 0, %0 ]
  %11 = load i8*, i8** bitcast (%"class.std::basic_istream"* @_ZSt3cin to i8**), align 8, !tbaa !9
  %12 = getelementptr i8, i8* %11, i64 -24
  %13 = bitcast i8* %12 to i64*
  %14 = load i64, i64* %13, align 8
  %15 = add nsw i64 %14, 240
  %16 = getelementptr inbounds i8, i8* bitcast (%"class.std::basic_istream"* @_ZSt3cin to i8*), i64 %15
  %17 = bitcast i8* %16 to %"class.std::ctype"**
  %18 = load %"class.std::ctype"*, %"class.std::ctype"** %17, align 8, !tbaa !11
  %19 = icmp eq %"class.std::ctype"* %18, null
  br i1 %19, label %20, label %21

20:                                               ; preds = %9
  call void @_ZSt16__throw_bad_castv() #9
  unreachable

21:                                               ; preds = %9
  %22 = getelementptr inbounds %"class.std::ctype", %"class.std::ctype"* %18, i64 0, i32 8
  %23 = load i8, i8* %22, align 8, !tbaa !15
  %24 = icmp eq i8 %23, 0
  br i1 %24, label %28, label %25

25:                                               ; preds = %21
  %26 = getelementptr inbounds %"class.std::ctype", %"class.std::ctype"* %18, i64 0, i32 9, i64 10
  %27 = load i8, i8* %26, align 1, !tbaa !17
  br label %34

28:                                               ; preds = %21
  call void @_ZNKSt5ctypeIcE13_M_widen_initEv(%"class.std::ctype"* nonnull align 8 dereferenceable(570) %18)
  %29 = bitcast %"class.std::ctype"* %18 to i8 (%"class.std::ctype"*, i8)***
  %30 = load i8 (%"class.std::ctype"*, i8)**, i8 (%"class.std::ctype"*, i8)*** %29, align 8, !tbaa !9
  %31 = getelementptr inbounds i8 (%"class.std::ctype"*, i8)*, i8 (%"class.std::ctype"*, i8)** %30, i64 6
  %32 = load i8 (%"class.std::ctype"*, i8)*, i8 (%"class.std::ctype"*, i8)** %31, align 8
  %33 = call signext i8 %32(%"class.std::ctype"* nonnull align 8 dereferenceable(570) %18, i8 signext 10)
  br label %34

34:                                               ; preds = %25, %28
  %35 = phi i8 [ %27, %25 ], [ %33, %28 ]
  %36 = call nonnull align 8 dereferenceable(16) %"class.std::basic_istream"* @_ZNSi7getlineEPclc(%"class.std::basic_istream"* nonnull align 8 dereferenceable(16) @_ZSt3cin, i8* nonnull %4, i64 100, i8 signext %35)
  %37 = call i64 @strlen(i8* noundef nonnull %4) #10
  %38 = trunc i64 %37 to i32
  %39 = load i8, i8* %4, align 16, !tbaa !17
  %40 = add i8 %39, -65
  %41 = icmp ult i8 %40, 26
  br i1 %41, label %47, label %42

42:                                               ; preds = %34
  %43 = add i8 %39, -97
  %44 = icmp ult i8 %43, 26
  %45 = icmp eq i8 %39, 95
  %46 = or i1 %45, %44
  br i1 %46, label %47, label %72

47:                                               ; preds = %42, %34
  %48 = icmp sgt i32 %38, 1
  br i1 %48, label %49, label %68

49:                                               ; preds = %47
  %50 = and i64 %37, 4294967295
  br label %51

51:                                               ; preds = %49, %63
  %52 = phi i64 [ 1, %49 ], [ %64, %63 ]
  %53 = getelementptr inbounds [100 x i8], [100 x i8]* %2, i64 0, i64 %52
  %54 = load i8, i8* %53, align 1, !tbaa !17
  %55 = and i8 %54, -33
  %56 = add i8 %55, -65
  %57 = icmp ult i8 %56, 26
  br i1 %57, label %63, label %58

58:                                               ; preds = %51
  %59 = add i8 %54, -48
  %60 = icmp ult i8 %59, 10
  %61 = icmp eq i8 %54, 95
  %62 = or i1 %61, %60
  br i1 %62, label %63, label %66

63:                                               ; preds = %58, %51
  %64 = add nuw nsw i64 %52, 1
  %65 = icmp eq i64 %64, %50
  br i1 %65, label %68, label %51, !llvm.loop !18

66:                                               ; preds = %58
  %67 = trunc i64 %52 to i32
  br label %68

68:                                               ; preds = %63, %66, %47
  %69 = phi i32 [ 1, %47 ], [ %67, %66 ], [ %38, %63 ]
  %70 = icmp eq i32 %69, %38
  %71 = zext i1 %70 to i32
  br label %72

72:                                               ; preds = %68, %42
  %73 = phi i32 [ 0, %42 ], [ %71, %68 ]
  %74 = call nonnull align 8 dereferenceable(8) %"class.std::basic_ostream"* @_ZNSolsEi(%"class.std::basic_ostream"* nonnull align 8 dereferenceable(8) @_ZSt4cout, i32 %73)
  %75 = bitcast %"class.std::basic_ostream"* %74 to i8**
  %76 = load i8*, i8** %75, align 8, !tbaa !9
  %77 = getelementptr i8, i8* %76, i64 -24
  %78 = bitcast i8* %77 to i64*
  %79 = load i64, i64* %78, align 8
  %80 = bitcast %"class.std::basic_ostream"* %74 to i8*
  %81 = add nsw i64 %79, 240
  %82 = getelementptr inbounds i8, i8* %80, i64 %81
  %83 = bitcast i8* %82 to %"class.std::ctype"**
  %84 = load %"class.std::ctype"*, %"class.std::ctype"** %83, align 8, !tbaa !11
  %85 = icmp eq %"class.std::ctype"* %84, null
  br i1 %85, label %86, label %87

86:                                               ; preds = %72
  call void @_ZSt16__throw_bad_castv() #9
  unreachable

87:                                               ; preds = %72
  %88 = getelementptr inbounds %"class.std::ctype", %"class.std::ctype"* %84, i64 0, i32 8
  %89 = load i8, i8* %88, align 8, !tbaa !15
  %90 = icmp eq i8 %89, 0
  br i1 %90, label %94, label %91

91:                                               ; preds = %87
  %92 = getelementptr inbounds %"class.std::ctype", %"class.std::ctype"* %84, i64 0, i32 9, i64 10
  %93 = load i8, i8* %92, align 1, !tbaa !17
  br label %100

94:                                               ; preds = %87
  call void @_ZNKSt5ctypeIcE13_M_widen_initEv(%"class.std::ctype"* nonnull align 8 dereferenceable(570) %84)
  %95 = bitcast %"class.std::ctype"* %84 to i8 (%"class.std::ctype"*, i8)***
  %96 = load i8 (%"class.std::ctype"*, i8)**, i8 (%"class.std::ctype"*, i8)*** %95, align 8, !tbaa !9
  %97 = getelementptr inbounds i8 (%"class.std::ctype"*, i8)*, i8 (%"class.std::ctype"*, i8)** %96, i64 6
  %98 = load i8 (%"class.std::ctype"*, i8)*, i8 (%"class.std::ctype"*, i8)** %97, align 8
  %99 = call signext i8 %98(%"class.std::ctype"* nonnull align 8 dereferenceable(570) %84, i8 signext 10)
  br label %100

100:                                              ; preds = %91, %94
  %101 = phi i8 [ %93, %91 ], [ %99, %94 ]
  %102 = call nonnull align 8 dereferenceable(8) %"class.std::basic_ostream"* @_ZNSo3putEc(%"class.std::basic_ostream"* nonnull align 8 dereferenceable(8) %74, i8 signext %101)
  %103 = call nonnull align 8 dereferenceable(8) %"class.std::basic_ostream"* @_ZNSo5flushEv(%"class.std::basic_ostream"* nonnull align 8 dereferenceable(8) %102)
  %104 = add nuw nsw i32 %10, 1
  %105 = load i32, i32* %1, align 4, !tbaa !5
  %106 = icmp slt i32 %104, %105
  br i1 %106, label %9, label %107, !llvm.loop !20

107:                                              ; preds = %100, %0
  call void @llvm.lifetime.end.p0i8(i64 100, i8* nonnull %4) #8
  call void @llvm.lifetime.end.p0i8(i64 4, i8* nonnull %3) #8
  ret i32 0
}

; Function Attrs: argmemonly mustprogress nofree nosync nounwind willreturn
declare void @llvm.lifetime.start.p0i8(i64 immarg, i8* nocapture) #4

declare nonnull align 8 dereferenceable(16) %"class.std::basic_istream"* @_ZNSirsERi(%"class.std::basic_istream"* nonnull align 8 dereferenceable(16), i32* nonnull align 4 dereferenceable(4)) local_unnamed_addr #0

declare i32 @_ZNSi3getEv(%"class.std::basic_istream"* nonnull align 8 dereferenceable(16)) local_unnamed_addr #0

; Function Attrs: argmemonly mustprogress nofree nounwind readonly willreturn
declare i64 @strlen(i8* nocapture) local_unnamed_addr #5

declare nonnull align 8 dereferenceable(8) %"class.std::basic_ostream"* @_ZNSolsEi(%"class.std::basic_ostream"* nonnull align 8 dereferenceable(8), i32) local_unnamed_addr #0

; Function Attrs: argmemonly mustprogress nofree nosync nounwind willreturn
declare void @llvm.lifetime.end.p0i8(i64 immarg, i8* nocapture) #4

declare nonnull align 8 dereferenceable(16) %"class.std::basic_istream"* @_ZNSi7getlineEPclc(%"class.std::basic_istream"* nonnull align 8 dereferenceable(16), i8*, i64, i8 signext) local_unnamed_addr #0

; Function Attrs: noreturn
declare void @_ZSt16__throw_bad_castv() local_unnamed_addr #6

declare void @_ZNKSt5ctypeIcE13_M_widen_initEv(%"class.std::ctype"* nonnull align 8 dereferenceable(570)) local_unnamed_addr #0

declare nonnull align 8 dereferenceable(8) %"class.std::basic_ostream"* @_ZNSo3putEc(%"class.std::basic_ostream"* nonnull align 8 dereferenceable(8), i8 signext) local_unnamed_addr #0

declare nonnull align 8 dereferenceable(8) %"class.std::basic_ostream"* @_ZNSo5flushEv(%"class.std::basic_ostream"* nonnull align 8 dereferenceable(8)) local_unnamed_addr #0

; Function Attrs: sspstrong uwtable
define internal void @_GLOBAL__sub_I_206.cpp() #7 section ".text.startup" {
  tail call void @_ZNSt8ios_base4InitC1Ev(%"class.std::ios_base::Init"* nonnull align 1 dereferenceable(1) @_ZStL8__ioinit)
  %1 = tail call i32 @__cxa_atexit(void (i8*)* bitcast (void (%"class.std::ios_base::Init"*)* @_ZNSt8ios_base4InitD1Ev to void (i8*)*), i8* getelementptr inbounds (%"class.std::ios_base::Init", %"class.std::ios_base::Init"* @_ZStL8__ioinit, i64 0, i32 0), i8* nonnull @__dso_handle) #8
  ret void
}


!llvm.module.flags = !{!0, !1, !2, !3}
!llvm.ident = !{!4}

!0 = !{i32 1, !"wchar_size", i32 4}
!1 = !{i32 7, !"PIC Level", i32 2}
!2 = !{i32 7, !"PIE Level", i32 2}
!3 = !{i32 7, !"uwtable", i32 1}
!4 = !{!"clang version 13.0.0"}
!5 = !{!6, !6, i64 0}
!6 = !{!"int", !7, i64 0}
!7 = !{!"omnipotent char", !8, i64 0}
!8 = !{!"Simple C++ TBAA"}
!9 = !{!10, !10, i64 0}
!10 = !{!"vtable pointer", !8, i64 0}
!11 = !{!12, !13, i64 240}
!12 = !{!"_ZTSSt9basic_iosIcSt11char_traitsIcEE", !13, i64 216, !7, i64 224, !14, i64 225, !13, i64 232, !13, i64 240, !13, i64 248, !13, i64 256}
!13 = !{!"any pointer", !7, i64 0}
!14 = !{!"bool", !7, i64 0}
!15 = !{!16, !7, i64 56}
!16 = !{!"_ZTSSt5ctypeIcE", !13, i64 16, !14, i64 24, !13, i64 32, !13, i64 40, !13, i64 48, !7, i64 56, !7, i64 57, !7, i64 313, !7, i64 569}
!17 = !{!7, !7, i64 0}
!18 = distinct !{!18, !19}
!19 = !{!"llvm.loop.mustprogress"}
!20 = distinct !{!20, !19}
